; Function Attrs: mustprogress nofree norecurse nosync nounwind willreturn memory(read, argmem: none, inaccessiblemem: none) uwtable
define hidden i64 @_ZN12LIRGenerator16getThreadPointerEv(ptr nocapture noundef nonnull readnone align 8 dereferenceable(232) %0) local_unnamed_addr #2 align 2 {
  %2 = load i32, ptr getelementptr inbounds (i8, ptr @_ZN8FrameMap12_cpu_reg2rnrE, i64 60), align 4
  %3 = shl i32 %2, 14
  %4 = shl i32 %2, 23
  %5 = or i32 %3, %4
  %6 = or disjoint i32 %5, 147
  %7 = sext i32 %6 to i64
  ret i64 %7
}